target datalayout = "e-m:e-p270:32:32-p271:32:32-p272:64:64-i64:64-i128:128-f80:128-n8:16:32:64-S128"
target triple = "x86_64-pc-linux-gnu"

%"class.std::__cxx11::basic_string" = type { %"struct.std::__cxx11::basic_string<char>::_Alloc_hider", i64, %union.anon }
%"struct.std::__cxx11::basic_string<char>::_Alloc_hider" = type { ptr }
%union.anon = type { i64, [8 x i8] }
%"class.pxrInternal_v0_24__pxrReserved__::TfCallContext" = type <{ ptr, ptr, i64, ptr, i8, [7 x i8] }>
%"struct.pxrInternal_v0_24__pxrReserved__::Tf_DiagnosticLiteHelper" = type { %"class.pxrInternal_v0_24__pxrReserved__::TfCallContext", i32, [4 x i8] }
%"class.std::allocator.17" = type { i8 }

@.str.1 = private unnamed_addr constant [139 x i8] c"generated/home/dtcxzyw/WorkSpace/Projects/compilers/llvm-opt-benchmark/bench/openusd/OpenUSD/pxr/base/tf/testenv/registryManagerUnload.cpp\00", align 1
@.str.16 = private unnamed_addr constant [21 x i8] c"Failed axiom: ' %s '\00", align 1
@__func__._ZL27_LoadAndUnloadSharedLibraryRKNSt7__cxx1112basic_stringIcSt11char_traitsIcESaIcEEE = private unnamed_addr constant [28 x i8] c"_LoadAndUnloadSharedLibrary\00", align 1
@__PRETTY_FUNCTION__._ZL27_LoadAndUnloadSharedLibraryRKNSt7__cxx1112basic_stringIcSt11char_traitsIcESaIcEEE = private unnamed_addr constant [54 x i8] c"void _LoadAndUnloadSharedLibrary(const std::string &)\00", align 1
@.str.17 = private unnamed_addr constant [7 x i8] c"handle\00", align 1
@.str.18 = private unnamed_addr constant [19 x i8] c"dlErrorMsg.empty()\00", align 1
@.str.19 = private unnamed_addr constant [19 x i8] c"!TfDlclose(handle)\00", align 1
@.str.20 = private unnamed_addr constant [50 x i8] c"basic_string: construction from null is not valid\00", align 1

; Function Attrs: mustprogress nounwind uwtable
define linkonce_odr dso_local void @_ZN32pxrInternal_v0_24__pxrReserved__23Tf_DiagnosticLiteHelperC2ERKNS_13TfCallContextENS_16TfDiagnosticTypeE(ptr noundef nonnull align 8 dereferenceable(44) %0, ptr noundef nonnull align 8 dereferenceable(33) %1, i32 noundef %2) unnamed_addr #4 comdat align 2 {
  %4 = alloca ptr, align 8
  %5 = alloca ptr, align 8
  %6 = alloca i32, align 4
  store ptr %0, ptr %4, align 8
  store ptr %1, ptr %5, align 8
  store i32 %2, ptr %6, align 4
  %7 = load ptr, ptr %4, align 8
  %8 = getelementptr inbounds nuw %"struct.pxrInternal_v0_24__pxrReserved__::Tf_DiagnosticLiteHelper", ptr %7, i32 0, i32 0
  %9 = load ptr, ptr %5, align 8
  call void @llvm.memcpy.p0.p0.i64(ptr align 8 %8, ptr align 8 %9, i64 40, i1 false)
  %10 = getelementptr inbounds nuw %"struct.pxrInternal_v0_24__pxrReserved__::Tf_DiagnosticLiteHelper", ptr %7, i32 0, i32 1
  %11 = load i32, ptr %6, align 4
  store i32 %11, ptr %10, align 8
  ret void
}

; Function Attrs: mustprogress nounwind uwtable
define linkonce_odr dso_local noundef i64 @_ZNSt11char_traitsIcE6lengthEPKc(ptr noundef %0) #4 comdat align 2 {
  %2 = alloca ptr, align 8
  store ptr %0, ptr %2, align 8
  %3 = load ptr, ptr %2, align 8
  %4 = call i64 @strlen(ptr noundef %3) #8
  ret i64 %4
}

; Function Attrs: mustprogress nounwind uwtable
define linkonce_odr dso_local void @_ZNSt7__cxx1112basic_stringIcSt11char_traitsIcESaIcEE12_Alloc_hiderD2Ev(ptr noundef nonnull align 8 dereferenceable(8) %0) unnamed_addr #4 comdat align 2 {
  %2 = alloca ptr, align 8
  store ptr %0, ptr %2, align 8
  %3 = load ptr, ptr %2, align 8
  call void @_ZNSaIcED2Ev(ptr noundef nonnull align 1 dereferenceable(1) %3) #8
  ret void
}

; Function Attrs: mustprogress uwtable
define linkonce_odr dso_local noundef zeroext i1 @_ZN32pxrInternal_v0_24__pxrReserved__14Tf_AxiomHelperEbRKNS_13TfCallContextEPKc(i1 noundef zeroext %0, ptr noundef nonnull align 8 dereferenceable(33) %1, ptr noundef %2) #2 comdat {
  %4 = alloca i8, align 1
  %5 = alloca ptr, align 8
  %6 = alloca ptr, align 8
  %7 = alloca %"struct.pxrInternal_v0_24__pxrReserved__::Tf_DiagnosticLiteHelper", align 8
  %8 = zext i1 %0 to i8
  store i8 %8, ptr %4, align 1
  store ptr %1, ptr %5, align 8
  store ptr %2, ptr %6, align 8
  %9 = load i8, ptr %4, align 1
  %10 = trunc i8 %9 to i1
  br i1 %10, label %11, label %12

11:                                               ; preds = %3
  br label %16

12:                                               ; preds = %3
  %13 = load ptr, ptr %5, align 8
  call void @_ZN32pxrInternal_v0_24__pxrReserved__23Tf_DiagnosticLiteHelperC2ERKNS_13TfCallContextENS_16TfDiagnosticTypeE(ptr noundef nonnull align 8 dereferenceable(44) %7, ptr noundef nonnull align 8 dereferenceable(33) %13, i32 noundef 4)
  %14 = load ptr, ptr %6, align 8
  call void (ptr, ptr, ...) @_ZNK32pxrInternal_v0_24__pxrReserved__23Tf_DiagnosticLiteHelper15IssueFatalErrorEPKcz(ptr noundef nonnull align 8 dereferenceable(44) %7, ptr noundef @.str.16, ptr noundef %14) #9
  unreachable

15:                                               ; No predecessors!
  br label %16

16:                                               ; preds = %15, %11
  %17 = phi i1 [ true, %11 ], [ false, %15 ]
  ret i1 %17
}

; Function Attrs: mustprogress nounwind uwtable
define linkonce_odr dso_local void @_ZN32pxrInternal_v0_24__pxrReserved__13TfCallContextC2EPKcS2_mS2_(ptr noundef nonnull align 8 dereferenceable(33) %0, ptr noundef %1, ptr noundef %2, i64 noundef %3, ptr noundef %4) unnamed_addr #4 comdat align 2 {
  %6 = alloca ptr, align 8
  %7 = alloca ptr, align 8
  %8 = alloca ptr, align 8
  %9 = alloca i64, align 8
  %10 = alloca ptr, align 8
  store ptr %0, ptr %6, align 8
  store ptr %1, ptr %7, align 8
  store ptr %2, ptr %8, align 8
  store i64 %3, ptr %9, align 8
  store ptr %4, ptr %10, align 8
  %11 = load ptr, ptr %6, align 8
  %12 = getelementptr inbounds nuw %"class.pxrInternal_v0_24__pxrReserved__::TfCallContext", ptr %11, i32 0, i32 0
  %13 = load ptr, ptr %7, align 8
  store ptr %13, ptr %12, align 8
  %14 = getelementptr inbounds nuw %"class.pxrInternal_v0_24__pxrReserved__::TfCallContext", ptr %11, i32 0, i32 1
  %15 = load ptr, ptr %8, align 8
  store ptr %15, ptr %14, align 8
  %16 = getelementptr inbounds nuw %"class.pxrInternal_v0_24__pxrReserved__::TfCallContext", ptr %11, i32 0, i32 2
  %17 = load i64, ptr %9, align 8
  store i64 %17, ptr %16, align 8
  %18 = getelementptr inbounds nuw %"class.pxrInternal_v0_24__pxrReserved__::TfCallContext", ptr %11, i32 0, i32 3
  %19 = load ptr, ptr %10, align 8
  store ptr %19, ptr %18, align 8
  %20 = getelementptr inbounds nuw %"class.pxrInternal_v0_24__pxrReserved__::TfCallContext", ptr %11, i32 0, i32 4
  store i8 0, ptr %20, align 8
  ret void
}

; Function Attrs: mustprogress uwtable
define linkonce_odr dso_local void @_ZNSt7__cxx1112basic_stringIcSt11char_traitsIcESaIcEEC2IS3_EEPKcRKS3_(ptr noundef nonnull align 8 dereferenceable(32) %0, ptr noundef %1, ptr noundef nonnull align 1 dereferenceable(1) %2) unnamed_addr #2 comdat align 2 personality ptr @__gxx_personality_v0 {
  %4 = alloca ptr, align 8
  %5 = alloca ptr, align 8
  %6 = alloca ptr, align 8
  %7 = alloca ptr, align 8
  %8 = alloca i32, align 4
  %9 = alloca ptr, align 8
  store ptr %0, ptr %4, align 8
  store ptr %1, ptr %5, align 8
  store ptr %2, ptr %6, align 8
  %10 = load ptr, ptr %4, align 8
  %11 = getelementptr inbounds nuw %"class.std::__cxx11::basic_string", ptr %10, i32 0, i32 0
  %12 = call noundef ptr @_ZNSt7__cxx1112basic_stringIcSt11char_traitsIcESaIcEE13_M_local_dataEv(ptr noundef nonnull align 8 dereferenceable(32) %10)
  %13 = load ptr, ptr %6, align 8
  call void @_ZNSt7__cxx1112basic_stringIcSt11char_traitsIcESaIcEE12_Alloc_hiderC1EPcRKS3_(ptr noundef nonnull align 8 dereferenceable(8) %11, ptr noundef %12, ptr noundef nonnull align 1 dereferenceable(1) %13)
  %14 = load ptr, ptr %5, align 8
  %15 = icmp eq ptr %14, null
  br i1 %15, label %16, label %22

16:                                               ; preds = %3
  invoke void @_ZSt19__throw_logic_errorPKc(ptr noundef @.str.20) #9
          to label %17 unwind label %18

17:                                               ; preds = %16
  unreachable

18:                                               ; preds = %26, %22, %16
  %19 = landingpad { ptr, i32 }
          cleanup
  %20 = extractvalue { ptr, i32 } %19, 0
  store ptr %20, ptr %7, align 8
  %21 = extractvalue { ptr, i32 } %19, 1
  store i32 %21, ptr %8, align 4
  call void @_ZNSt7__cxx1112basic_stringIcSt11char_traitsIcESaIcEE12_Alloc_hiderD2Ev(ptr noundef nonnull align 8 dereferenceable(8) %11) #8
  br label %31

22:                                               ; preds = %3
  %23 = load ptr, ptr %5, align 8
  %24 = load ptr, ptr %5, align 8
  %25 = invoke noundef i64 @_ZNSt11char_traitsIcE6lengthEPKc(ptr noundef %24)
          to label %26 unwind label %18

26:                                               ; preds = %22
  %27 = getelementptr inbounds i8, ptr %23, i64 %25
  store ptr %27, ptr %9, align 8
  %28 = load ptr, ptr %5, align 8
  %29 = load ptr, ptr %9, align 8
  invoke void @_ZNSt7__cxx1112basic_stringIcSt11char_traitsIcESaIcEE12_M_constructIPKcEEvT_S8_St20forward_iterator_tag(ptr noundef nonnull align 8 dereferenceable(32) %10, ptr noundef %28, ptr noundef %29)
          to label %30 unwind label %18

30:                                               ; preds = %26
  ret void

31:                                               ; preds = %18
  %32 = load ptr, ptr %7, align 8
  %33 = load i32, ptr %8, align 4
  %34 = insertvalue { ptr, i32 } poison, ptr %32, 0
  %35 = insertvalue { ptr, i32 } %34, i32 %33, 1
  resume { ptr, i32 } %35
}

; Function Attrs: mustprogress uwtable
define internal void @_ZL27_LoadAndUnloadSharedLibraryRKNSt7__cxx1112basic_stringIcSt11char_traitsIcESaIcEEE(ptr noundef nonnull align 8 dereferenceable(32) %0) #2 personality ptr @__gxx_personality_v0 {
  %2 = alloca ptr, align 8
  %3 = alloca %"class.std::__cxx11::basic_string", align 8
  %4 = alloca ptr, align 8
  %5 = alloca %"class.std::__cxx11::basic_string", align 8
  %6 = alloca %"class.std::allocator.17", align 1
  %7 = alloca ptr, align 8
  %8 = alloca i32, align 4
  %9 = alloca %"class.pxrInternal_v0_24__pxrReserved__::TfCallContext", align 8
  %10 = alloca %"class.pxrInternal_v0_24__pxrReserved__::TfCallContext", align 8
  %11 = alloca %"class.pxrInternal_v0_24__pxrReserved__::TfCallContext", align 8
  store ptr %0, ptr %2, align 8
  call void @_ZNSt7__cxx1112basic_stringIcSt11char_traitsIcESaIcEEC1Ev(ptr noundef nonnull align 8 dereferenceable(32) %3) #8
  %12 = load ptr, ptr %2, align 8
  %13 = call noundef ptr @_ZNKSt7__cxx1112basic_stringIcSt11char_traitsIcESaIcEE5c_strEv(ptr noundef nonnull align 8 dereferenceable(32) %12) #8
  call void @_ZNSaIcEC1Ev(ptr noundef nonnull align 1 dereferenceable(1) %6) #8
  invoke void @_ZNSt7__cxx1112basic_stringIcSt11char_traitsIcESaIcEEC2IS3_EEPKcRKS3_(ptr noundef nonnull align 8 dereferenceable(32) %5, ptr noundef %13, ptr noundef nonnull align 1 dereferenceable(1) %6)
          to label %14 unwind label %34

14:                                               ; preds = %1
  %15 = invoke noundef ptr @_ZN32pxrInternal_v0_24__pxrReserved__8TfDlopenERKNSt7__cxx1112basic_stringIcSt11char_traitsIcESaIcEEEiPS5_b(ptr noundef nonnull align 8 dereferenceable(32) %5, i32 noundef 2, ptr noundef %3, i1 noundef zeroext true)
          to label %16 unwind label %38

16:                                               ; preds = %14
  call void @_ZNSt7__cxx1112basic_stringIcSt11char_traitsIcESaIcEED1Ev(ptr noundef nonnull align 8 dereferenceable(32) %5) #8
  call void @_ZNSaIcED1Ev(ptr noundef nonnull align 1 dereferenceable(1) %6) #8
  store ptr %15, ptr %4, align 8
  %17 = load ptr, ptr %4, align 8
  %18 = icmp ne ptr %17, null
  invoke void @_ZN32pxrInternal_v0_24__pxrReserved__13TfCallContextC2EPKcS2_mS2_(ptr noundef nonnull align 8 dereferenceable(33) %9, ptr noundef @.str.1, ptr noundef @__func__._ZL27_LoadAndUnloadSharedLibraryRKNSt7__cxx1112basic_stringIcSt11char_traitsIcESaIcEEE, i64 noundef 30, ptr noundef @__PRETTY_FUNCTION__._ZL27_LoadAndUnloadSharedLibraryRKNSt7__cxx1112basic_stringIcSt11char_traitsIcESaIcEEE)
          to label %19 unwind label %43

19:                                               ; preds = %16
  %20 = invoke noundef zeroext i1 @_ZN32pxrInternal_v0_24__pxrReserved__14Tf_AxiomHelperEbRKNS_13TfCallContextEPKc(i1 noundef zeroext %18, ptr noundef nonnull align 8 dereferenceable(33) %9, ptr noundef @.str.17)
          to label %21 unwind label %43

21:                                               ; preds = %19
  %22 = call noundef zeroext i1 @_ZNKSt7__cxx1112basic_stringIcSt11char_traitsIcESaIcEE5emptyEv(ptr noundef nonnull align 8 dereferenceable(32) %3) #8
  invoke void @_ZN32pxrInternal_v0_24__pxrReserved__13TfCallContextC2EPKcS2_mS2_(ptr noundef nonnull align 8 dereferenceable(33) %10, ptr noundef @.str.1, ptr noundef @__func__._ZL27_LoadAndUnloadSharedLibraryRKNSt7__cxx1112basic_stringIcSt11char_traitsIcESaIcEEE, i64 noundef 31, ptr noundef @__PRETTY_FUNCTION__._ZL27_LoadAndUnloadSharedLibraryRKNSt7__cxx1112basic_stringIcSt11char_traitsIcESaIcEEE)
          to label %23 unwind label %43

23:                                               ; preds = %21
  %24 = invoke noundef zeroext i1 @_ZN32pxrInternal_v0_24__pxrReserved__14Tf_AxiomHelperEbRKNS_13TfCallContextEPKc(i1 noundef zeroext %22, ptr noundef nonnull align 8 dereferenceable(33) %10, ptr noundef @.str.18)
          to label %25 unwind label %43

25:                                               ; preds = %23
  %26 = load ptr, ptr %4, align 8
  %27 = invoke noundef i32 @_ZN32pxrInternal_v0_24__pxrReserved__9TfDlcloseEPv(ptr noundef %26)
          to label %28 unwind label %43

28:                                               ; preds = %25
  %29 = icmp ne i32 %27, 0
  %30 = xor i1 %29, true
  invoke void @_ZN32pxrInternal_v0_24__pxrReserved__13TfCallContextC2EPKcS2_mS2_(ptr noundef nonnull align 8 dereferenceable(33) %11, ptr noundef @.str.1, ptr noundef @__func__._ZL27_LoadAndUnloadSharedLibraryRKNSt7__cxx1112basic_stringIcSt11char_traitsIcESaIcEEE, i64 noundef 32, ptr noundef @__PRETTY_FUNCTION__._ZL27_LoadAndUnloadSharedLibraryRKNSt7__cxx1112basic_stringIcSt11char_traitsIcESaIcEEE)
          to label %31 unwind label %43

31:                                               ; preds = %28
  %32 = invoke noundef zeroext i1 @_ZN32pxrInternal_v0_24__pxrReserved__14Tf_AxiomHelperEbRKNS_13TfCallContextEPKc(i1 noundef zeroext %30, ptr noundef nonnull align 8 dereferenceable(33) %11, ptr noundef @.str.19)
          to label %33 unwind label %43

33:                                               ; preds = %31
  call void @_ZNSt7__cxx1112basic_stringIcSt11char_traitsIcESaIcEED1Ev(ptr noundef nonnull align 8 dereferenceable(32) %3) #8
  ret void

34:                                               ; preds = %1
  %35 = landingpad { ptr, i32 }
          cleanup
  %36 = extractvalue { ptr, i32 } %35, 0
  store ptr %36, ptr %7, align 8
  %37 = extractvalue { ptr, i32 } %35, 1
  store i32 %37, ptr %8, align 4
  br label %42

38:                                               ; preds = %14
  %39 = landingpad { ptr, i32 }
          cleanup
  %40 = extractvalue { ptr, i32 } %39, 0
  store ptr %40, ptr %7, align 8
  %41 = extractvalue { ptr, i32 } %39, 1
  store i32 %41, ptr %8, align 4
  call void @_ZNSt7__cxx1112basic_stringIcSt11char_traitsIcESaIcEED1Ev(ptr noundef nonnull align 8 dereferenceable(32) %5) #8
  br label %42

42:                                               ; preds = %38, %34
  call void @_ZNSaIcED1Ev(ptr noundef nonnull align 1 dereferenceable(1) %6) #8
  br label %47

43:                                               ; preds = %31, %28, %25, %23, %21, %19, %16
  %44 = landingpad { ptr, i32 }
          cleanup
  %45 = extractvalue { ptr, i32 } %44, 0
  store ptr %45, ptr %7, align 8
  %46 = extractvalue { ptr, i32 } %44, 1
  store i32 %46, ptr %8, align 4
  br label %47

47:                                               ; preds = %43, %42
  call void @_ZNSt7__cxx1112basic_stringIcSt11char_traitsIcESaIcEED1Ev(ptr noundef nonnull align 8 dereferenceable(32) %3) #8
  br label %48

48:                                               ; preds = %47
  %49 = load ptr, ptr %7, align 8
  %50 = load i32, ptr %8, align 4
  %51 = insertvalue { ptr, i32 } poison, ptr %49, 0
  %52 = insertvalue { ptr, i32 } %51, i32 %50, 1
  resume { ptr, i32 } %52
}