; Function Attrs: mustprogress uwtable
define internal fastcc void @_ZL27_LoadAndUnloadSharedLibraryRKNSt7__cxx1112basic_stringIcSt11char_traitsIcESaIcEEE(ptr noundef nonnull align 8 dereferenceable(32) %0) unnamed_addr #1 personality ptr @__gxx_personality_v0 {
  %2 = alloca %"struct.pxrInternal_v0_24__pxrReserved__::Tf_DiagnosticLiteHelper", align 8
  %3 = alloca %"struct.pxrInternal_v0_24__pxrReserved__::Tf_DiagnosticLiteHelper", align 8
  %4 = alloca %"struct.pxrInternal_v0_24__pxrReserved__::Tf_DiagnosticLiteHelper", align 8
  %5 = alloca %"class.std::__cxx11::basic_string", align 8
  %6 = alloca %"class.std::__cxx11::basic_string", align 8
  %7 = alloca %"class.std::allocator.17", align 1
  call void @_ZNSt7__cxx1112basic_stringIcSt11char_traitsIcESaIcEEC1Ev(ptr noundef nonnull align 8 dereferenceable(32) %5) #11
  %8 = call noundef ptr @_ZNKSt7__cxx1112basic_stringIcSt11char_traitsIcESaIcEE5c_strEv(ptr noundef nonnull align 8 dereferenceable(32) %0) #11
  call void @_ZNSaIcEC1Ev(ptr noundef nonnull align 1 dereferenceable(1) %7) #11
  %.sink33.sroa.gep = getelementptr inbounds nuw i8, ptr %4, i64 8
  %.sink33.sroa.gep34 = getelementptr inbounds nuw i8, ptr %3, i64 8
  %.sink33.sroa.gep35 = getelementptr inbounds nuw i8, ptr %2, i64 8
  %.sink33.sroa.gep37 = getelementptr inbounds nuw i8, ptr %4, i64 16
  %.sink33.sroa.gep38 = getelementptr inbounds nuw i8, ptr %3, i64 16
  %.sink33.sroa.gep39 = getelementptr inbounds nuw i8, ptr %2, i64 16
  %.sink33.sroa.gep41 = getelementptr inbounds nuw i8, ptr %4, i64 24
  %.sink33.sroa.gep42 = getelementptr inbounds nuw i8, ptr %3, i64 24
  %.sink33.sroa.gep43 = getelementptr inbounds nuw i8, ptr %2, i64 24
  %.sink33.sroa.gep45 = getelementptr inbounds nuw i8, ptr %4, i64 32
  %.sink33.sroa.gep46 = getelementptr inbounds nuw i8, ptr %3, i64 32
  %.sink33.sroa.gep47 = getelementptr inbounds nuw i8, ptr %2, i64 32
  %.sink33.sroa.gep49 = getelementptr inbounds nuw i8, ptr %4, i64 40
  %.sink33.sroa.gep50 = getelementptr inbounds nuw i8, ptr %3, i64 40
  %.sink33.sroa.gep51 = getelementptr inbounds nuw i8, ptr %2, i64 40
  %9 = invoke noundef ptr @_ZNSt7__cxx1112basic_stringIcSt11char_traitsIcESaIcEE13_M_local_dataEv(ptr noundef nonnull align 8 dereferenceable(32) %6)
          to label %.noexc unwind label %27

.noexc:                                           ; preds = %1
  invoke void @_ZNSt7__cxx1112basic_stringIcSt11char_traitsIcESaIcEE12_Alloc_hiderC1EPcRKS3_(ptr noundef nonnull align 8 dereferenceable(32) %6, ptr noundef %9, ptr noundef nonnull align 1 dereferenceable(1) %7)
          to label %.noexc9 unwind label %27

.noexc9:                                          ; preds = %.noexc
  %10 = icmp eq ptr %8, null
  br i1 %10, label %11, label %15

11:                                               ; preds = %.noexc9
  invoke void @_ZSt19__throw_logic_errorPKc(ptr noundef nonnull @.str.20) #12
          to label %12 unwind label %13

12:                                               ; preds = %11
  unreachable

13:                                               ; preds = %15, %11
  %14 = landingpad { ptr, i32 }
          cleanup
  call void @_ZNSaIcED2Ev(ptr noundef nonnull align 8 dereferenceable(32) %6) #11
  br label %.body

15:                                               ; preds = %.noexc9
  %16 = call noundef i64 @strlen(ptr noundef nonnull dereferenceable(1) %8) #11
  %17 = getelementptr inbounds i8, ptr %8, i64 %16
  invoke void @_ZNSt7__cxx1112basic_stringIcSt11char_traitsIcESaIcEE12_M_constructIPKcEEvT_S8_St20forward_iterator_tag(ptr noundef nonnull align 8 dereferenceable(32) %6, ptr noundef nonnull %8, ptr noundef nonnull %17)
          to label %_ZNSt7__cxx1112basic_stringIcSt11char_traitsIcESaIcEEC2IS3_EEPKcRKS3_.exit unwind label %13

_ZNSt7__cxx1112basic_stringIcSt11char_traitsIcESaIcEEC2IS3_EEPKcRKS3_.exit: ; preds = %15
  %18 = invoke noundef ptr @_ZN32pxrInternal_v0_24__pxrReserved__8TfDlopenERKNSt7__cxx1112basic_stringIcSt11char_traitsIcESaIcEEEiPS5_b(ptr noundef nonnull align 8 dereferenceable(32) %6, i32 noundef 2, ptr noundef nonnull %5, i1 noundef zeroext true)
          to label %19 unwind label %29

19:                                               ; preds = %_ZNSt7__cxx1112basic_stringIcSt11char_traitsIcESaIcEEC2IS3_EEPKcRKS3_.exit
  call void @_ZNSt7__cxx1112basic_stringIcSt11char_traitsIcESaIcEED1Ev(ptr noundef nonnull align 8 dereferenceable(32) %6) #11
  call void @_ZNSaIcED1Ev(ptr noundef nonnull align 1 dereferenceable(1) %7) #11
  %.not27 = icmp eq ptr %18, null
  call void @llvm.lifetime.start.p0(i64 48, ptr nonnull %4)
  br i1 %.not27, label %.invoke, label %20

20:                                               ; preds = %19
  call void @llvm.lifetime.end.p0(i64 48, ptr nonnull %4)
  %21 = call noundef zeroext i1 @_ZNKSt7__cxx1112basic_stringIcSt11char_traitsIcESaIcEE5emptyEv(ptr noundef nonnull align 8 dereferenceable(32) %5) #11
  call void @llvm.lifetime.start.p0(i64 48, ptr nonnull %3)
  br i1 %21, label %22, label %.invoke

22:                                               ; preds = %20
  call void @llvm.lifetime.end.p0(i64 48, ptr nonnull %3)
  %23 = invoke noundef i32 @_ZN32pxrInternal_v0_24__pxrReserved__9TfDlcloseEPv(ptr noundef nonnull %18)
          to label %24 unwind label %31

24:                                               ; preds = %22
  %.not = icmp eq i32 %23, 0
  call void @llvm.lifetime.start.p0(i64 48, ptr nonnull %2)
  br i1 %.not, label %26, label %.invoke

.invoke:                                          ; preds = %24, %20, %19
  %.sink33.sroa.phi = phi ptr [ %.sink33.sroa.gep, %19 ], [ %.sink33.sroa.gep34, %20 ], [ %.sink33.sroa.gep35, %24 ]
  %.sink33.sroa.phi36 = phi ptr [ %.sink33.sroa.gep37, %19 ], [ %.sink33.sroa.gep38, %20 ], [ %.sink33.sroa.gep39, %24 ]
  %.sink33.sroa.phi40 = phi ptr [ %.sink33.sroa.gep41, %19 ], [ %.sink33.sroa.gep42, %20 ], [ %.sink33.sroa.gep43, %24 ]
  %.sink33.sroa.phi44 = phi ptr [ %.sink33.sroa.gep45, %19 ], [ %.sink33.sroa.gep46, %20 ], [ %.sink33.sroa.gep47, %24 ]
  %.sink33.sroa.phi48 = phi ptr [ %.sink33.sroa.gep49, %19 ], [ %.sink33.sroa.gep50, %20 ], [ %.sink33.sroa.gep51, %24 ]
  %.sink33 = phi ptr [ %4, %19 ], [ %3, %20 ], [ %2, %24 ]
  %.sink30 = phi i64 [ 30, %19 ], [ 31, %20 ], [ 32, %24 ]
  %25 = phi ptr [ @.str.17, %19 ], [ @.str.18, %20 ], [ @.str.19, %24 ]
  store ptr @.str.1, ptr %.sink33, align 8
  store ptr @__func__._ZL27_LoadAndUnloadSharedLibraryRKNSt7__cxx1112basic_stringIcSt11char_traitsIcESaIcEEE, ptr %.sink33.sroa.phi, align 8
  store i64 %.sink30, ptr %.sink33.sroa.phi36, align 8
  store ptr @__PRETTY_FUNCTION__._ZL27_LoadAndUnloadSharedLibraryRKNSt7__cxx1112basic_stringIcSt11char_traitsIcESaIcEEE, ptr %.sink33.sroa.phi40, align 8
  store i8 0, ptr %.sink33.sroa.phi44, align 8
  store i32 4, ptr %.sink33.sroa.phi48, align 8
  invoke void (ptr, ptr, ...) @_ZNK32pxrInternal_v0_24__pxrReserved__23Tf_DiagnosticLiteHelper15IssueFatalErrorEPKcz(ptr noundef nonnull align 8 dereferenceable(44) %.sink33, ptr noundef nonnull @.str.16, ptr noundef nonnull %25) #12
          to label %.cont unwind label %31

.cont:                                            ; preds = %.invoke
  unreachable

26:                                               ; preds = %24
  call void @llvm.lifetime.end.p0(i64 48, ptr nonnull %2)
  call void @_ZNSt7__cxx1112basic_stringIcSt11char_traitsIcESaIcEED1Ev(ptr noundef nonnull align 8 dereferenceable(32) %5) #11
  ret void

27:                                               ; preds = %.noexc, %1
  %28 = landingpad { ptr, i32 }
          cleanup
  br label %.body

29:                                               ; preds = %_ZNSt7__cxx1112basic_stringIcSt11char_traitsIcESaIcEEC2IS3_EEPKcRKS3_.exit
  %30 = landingpad { ptr, i32 }
          cleanup
  call void @_ZNSt7__cxx1112basic_stringIcSt11char_traitsIcESaIcEED1Ev(ptr noundef nonnull align 8 dereferenceable(32) %6) #11
  br label %.body

.body:                                            ; preds = %27, %13, %29
  %.pn = phi { ptr, i32 } [ %30, %29 ], [ %28, %27 ], [ %14, %13 ]
  call void @_ZNSaIcED1Ev(ptr noundef nonnull align 1 dereferenceable(1) %7) #11
  br label %33

31:                                               ; preds = %.invoke, %22
  %32 = landingpad { ptr, i32 }
          cleanup
  br label %33

33:                                               ; preds = %31, %.body
  %.pn7 = phi { ptr, i32 } [ %32, %31 ], [ %.pn, %.body ]
  call void @_ZNSt7__cxx1112basic_stringIcSt11char_traitsIcESaIcEED1Ev(ptr noundef nonnull align 8 dereferenceable(32) %5) #11
  resume { ptr, i32 } %.pn7
}